target datalayout = "e-m:e-p270:32:32-p271:32:32-p272:64:64-i64:64-i128:128-f80:128-n8:16:32:64-S128"
target triple = "x86_64-pc-linux-gnu"

%struct.quic_stream_list_node_st = type { ptr, ptr }
%struct.quic_stream_st = type { %struct.quic_stream_list_node_st, %struct.quic_stream_list_node_st, %struct.quic_stream_list_node_st, ptr, i64, i64, i64, i64, i64, i64, i64, ptr, ptr, %struct.quic_txfc_st, %struct.quic_rxfc_st, i64 }
%struct.quic_txfc_st = type { ptr, i64, i64, i8 }
%struct.quic_rxfc_st = type { i64, i64, i64, i64, i64, i64, i64, %struct.OSSL_TIME, ptr, ptr, ptr, i8, i8, i8, i8 }
%struct.OSSL_TIME = type { i64 }

; Function Attrs: nounwind uwtable
define i32 @ossl_quic_stream_map_notify_size_known_recv_part(ptr noundef %0, ptr noundef %1, i64 noundef %2) #0 {
  %4 = alloca i32, align 4
  %5 = alloca ptr, align 8
  %6 = alloca ptr, align 8
  %7 = alloca i64, align 8
  store ptr %0, ptr %5, align 8, !tbaa !3
  store ptr %1, ptr %6, align 8, !tbaa !37
  store i64 %2, ptr %7, align 8, !tbaa !47
  %8 = load ptr, ptr %6, align 8, !tbaa !37
  %9 = getelementptr inbounds nuw %struct.quic_stream_st, ptr %8, i32 0, i32 15
  %10 = load i64, ptr %9, align 8
  %11 = lshr i64 %10, 16
  %12 = and i64 %11, 255
  %13 = trunc i64 %12 to i32
  switch i32 %13, label %14 [
    i32 0, label %15
    i32 1, label %16
  ]

14:                                               ; preds = %3
  br label %15

15:                                               ; preds = %3, %14
  store i32 0, ptr %4, align 4
  br label %22

16:                                               ; preds = %3
  %17 = load ptr, ptr %6, align 8, !tbaa !37
  %18 = getelementptr inbounds nuw %struct.quic_stream_st, ptr %17, i32 0, i32 15
  %19 = load i64, ptr %18, align 8
  %20 = and i64 %19, -16711681
  %21 = or i64 %20, 131072
  store i64 %21, ptr %18, align 8
  store i32 1, ptr %4, align 4
  br label %22

22:                                               ; preds = %16, %15
  %23 = load i32, ptr %4, align 4
  ret i32 %23
}