; Function Attrs: mustprogress nofree norecurse nosync nounwind willreturn memory(argmem: readwrite) uwtable
define range(i32 0, 2) i32 @ossl_quic_stream_map_notify_size_known_recv_part(ptr noundef readnone captures(none) %0, ptr noundef captures(none) %1, i64 noundef %2) local_unnamed_addr #5 {
  %4 = getelementptr inbounds nuw i8, ptr %1, i64 256
  %5 = load i64, ptr %4, align 8
  %6 = and i64 %5, 16711680
  %cond = icmp eq i64 %6, 65536
  br i1 %cond, label %7, label %10

7:                                                ; preds = %3
  %8 = and i64 %5, -16711681
  %9 = or disjoint i64 %8, 131072
  store i64 %9, ptr %4, align 8
  br label %10

10:                                               ; preds = %3, %7
  %.0 = phi i32 [ 1, %7 ], [ 0, %3 ]
  ret i32 %.0
}